target datalayout = "e-m:e-p270:32:32-p271:32:32-p272:64:64-i64:64-i128:128-f80:128-n8:16:32:64-S128"
target triple = "x86_64-pc-linux-gnu"

%class.QBasicAtomicInteger = type { %"struct.std::atomic" }
%"struct.std::atomic" = type { %"struct.std::__atomic_base" }
%"struct.std::__atomic_base" = type { i32 }
%class.Ui_Paintbox = type { ptr, ptr, ptr, ptr, ptr, ptr, ptr, ptr, ptr, ptr, ptr, ptr, ptr, ptr, ptr, ptr, ptr, ptr, ptr, ptr, ptr, ptr, ptr, ptr, ptr, ptr, ptr, ptr, ptr, ptr, ptr, ptr, ptr, ptr, ptr, ptr, ptr, ptr, ptr, ptr, ptr, ptr, ptr, ptr, ptr, ptr, ptr, ptr, ptr, ptr, ptr, ptr, ptr, ptr, ptr, ptr, ptr, ptr, ptr, ptr, ptr, ptr, ptr, ptr, ptr, ptr, ptr, ptr, ptr, ptr, ptr, ptr, ptr, ptr, ptr, ptr, ptr, ptr, ptr, ptr, ptr, ptr, ptr, ptr, ptr, ptr, ptr, ptr, ptr, ptr, ptr, ptr, ptr }
%class.QBrush = type { %class.QScopedPointer.3 }
%class.QScopedPointer.3 = type { ptr }
%class.QColor = type <{ i32, %"union.QColor::CT", [2 x i8] }>
%"union.QColor::CT" = type { %struct.anon }
%struct.anon = type { i16, i16, i16, i16, i16 }
%struct.QBrushData = type { %class.QAtomicInt, i32, %class.QColor, %class.QTransform }
%class.QAtomicInt = type { %class.QAtomicInteger }
%class.QAtomicInteger = type { %class.QBasicAtomicInteger }
%class.QTransform = type { %class.QMatrix, double, double, double, i16, ptr }
%class.QMatrix = type { double, double, double, double, double, double }

; Function Attrs: mustprogress nounwind uwtable
define linkonce_odr noundef ptr @_ZNK14QScopedPointerI10QBrushData24QBrushDataPointerDeleterEptEv(ptr noundef nonnull align 8 dereferenceable(8) %0) #3 comdat align 2 {
  %2 = alloca ptr, align 8
  store ptr %0, ptr %2, align 8
  %3 = load ptr, ptr %2, align 8
  %4 = getelementptr inbounds %class.QScopedPointer.3, ptr %3, i32 0, i32 0
  %5 = load ptr, ptr %4, align 8
  ret ptr %5
}

; Function Attrs: mustprogress nounwind uwtable
define linkonce_odr noundef nonnull align 4 dereferenceable(14) ptr @_ZNK6QBrush5colorEv(ptr noundef nonnull align 8 dereferenceable(8) %0) #3 comdat align 2 {
  %2 = alloca ptr, align 8
  store ptr %0, ptr %2, align 8
  %3 = load ptr, ptr %2, align 8
  %4 = getelementptr inbounds %class.QBrush, ptr %3, i32 0, i32 0
  %5 = call noundef ptr @_ZNK14QScopedPointerI10QBrushData24QBrushDataPointerDeleterEptEv(ptr noundef nonnull align 8 dereferenceable(8) %4) #12
  %6 = getelementptr inbounds %struct.QBrushData, ptr %5, i32 0, i32 2
  ret ptr %6
}

; Function Attrs: mustprogress uwtable
define linkonce_odr noundef nonnull align 4 dereferenceable(14) ptr @_ZNK8QPalette5colorENS_10ColorGroupENS_9ColorRoleE(ptr noundef nonnull align 8 dereferenceable(12) %0, i32 noundef %1, i32 noundef %2) #0 comdat align 2 {
  %4 = alloca ptr, align 8
  %5 = alloca i32, align 4
  %6 = alloca i32, align 4
  store ptr %0, ptr %4, align 8
  store i32 %1, ptr %5, align 4
  store i32 %2, ptr %6, align 4
  %7 = load ptr, ptr %4, align 8
  %8 = load i32, ptr %5, align 4
  %9 = load i32, ptr %6, align 4
  %10 = call noundef nonnull align 8 dereferenceable(8) ptr @_ZNK8QPalette5brushENS_10ColorGroupENS_9ColorRoleE(ptr noundef nonnull align 8 dereferenceable(12) %7, i32 noundef %8, i32 noundef %9)
  %11 = call noundef nonnull align 4 dereferenceable(14) ptr @_ZNK6QBrush5colorEv(ptr noundef nonnull align 8 dereferenceable(8) %10)
  ret ptr %11
}

; Function Attrs: mustprogress nounwind uwtable
define linkonce_odr void @_ZN6QColorC2ERKS_(ptr noundef nonnull align 4 dereferenceable(14) %0, ptr noundef nonnull align 4 dereferenceable(14) %1) unnamed_addr #3 comdat align 2 {
  %3 = alloca ptr, align 8
  %4 = alloca ptr, align 8
  store ptr %0, ptr %3, align 8
  store ptr %1, ptr %4, align 8
  %5 = load ptr, ptr %3, align 8
  %6 = getelementptr inbounds %class.QColor, ptr %5, i32 0, i32 0
  %7 = load ptr, ptr %4, align 8
  %8 = getelementptr inbounds %class.QColor, ptr %7, i32 0, i32 0
  %9 = load i32, ptr %8, align 4
  store i32 %9, ptr %6, align 4
  %10 = getelementptr inbounds %class.QColor, ptr %5, i32 0, i32 1
  %11 = load ptr, ptr %4, align 8
  %12 = getelementptr inbounds %class.QColor, ptr %11, i32 0, i32 1
  call void @llvm.memcpy.p0.p0.i64(ptr align 4 %10, ptr align 4 %12, i64 10, i1 false)
  ret void
}

; Function Attrs: mustprogress uwtable
define linkonce_odr void @_ZN10Colorframe8getColorEv(ptr dead_on_unwind noalias writable sret(%class.QColor) align 4 %0, ptr noundef nonnull align 8 dereferenceable(48) %1) #0 comdat align 2 {
  %3 = alloca ptr, align 8
  %4 = alloca ptr, align 8
  store ptr %0, ptr %3, align 8
  store ptr %1, ptr %4, align 8
  %5 = load ptr, ptr %4, align 8
  %6 = call noundef nonnull align 8 dereferenceable(12) ptr @_ZNK7QWidget7paletteEv(ptr noundef nonnull align 8 dereferenceable(48) %5)
  %7 = call noundef nonnull align 4 dereferenceable(14) ptr @_ZNK8QPalette5colorENS_10ColorGroupENS_9ColorRoleE(ptr noundef nonnull align 8 dereferenceable(12) %6, i32 noundef 0, i32 noundef 10)
  call void @_ZN6QColorC2ERKS_(ptr noundef nonnull align 4 dereferenceable(14) %0, ptr noundef nonnull align 4 dereferenceable(14) %7) #12
  ret void
}

; Function Attrs: mustprogress uwtable
define void @_ZN8Paintbox24on_switch_colors_clickedEv(ptr noundef nonnull align 8 dereferenceable(844) %0) #0 align 2 {
  %2 = alloca ptr, align 8
  %3 = alloca %class.QColor, align 4
  %4 = alloca %class.QColor, align 4
  %5 = alloca %class.QColor, align 4
  store ptr %0, ptr %2, align 8
  %6 = load ptr, ptr %2, align 8
  %7 = getelementptr inbounds i8, ptr %6, i64 48
  %8 = getelementptr inbounds %class.Ui_Paintbox, ptr %7, i32 0, i32 26
  %9 = load ptr, ptr %8, align 8
  call void @_ZN10Colorframe8getColorEv(ptr dead_on_unwind writable sret(%class.QColor) align 4 %3, ptr noundef nonnull align 8 dereferenceable(48) %9)
  %10 = getelementptr inbounds i8, ptr %6, i64 48
  %11 = getelementptr inbounds %class.Ui_Paintbox, ptr %10, i32 0, i32 26
  %12 = load ptr, ptr %11, align 8
  %13 = getelementptr inbounds i8, ptr %6, i64 48
  %14 = getelementptr inbounds %class.Ui_Paintbox, ptr %13, i32 0, i32 25
  %15 = load ptr, ptr %14, align 8
  call void @_ZN10Colorframe8getColorEv(ptr dead_on_unwind writable sret(%class.QColor) align 4 %4, ptr noundef nonnull align 8 dereferenceable(48) %15)
  call void @_ZN10Colorframe8setColorE6QColor(ptr noundef nonnull align 8 dereferenceable(48) %12, ptr noundef %4)
  %16 = getelementptr inbounds i8, ptr %6, i64 48
  %17 = getelementptr inbounds %class.Ui_Paintbox, ptr %16, i32 0, i32 25
  %18 = load ptr, ptr %17, align 8
  call void @_ZN6QColorC2ERKS_(ptr noundef nonnull align 4 dereferenceable(14) %5, ptr noundef nonnull align 4 dereferenceable(14) %3) #12
  call void @_ZN10Colorframe8setColorE6QColor(ptr noundef nonnull align 8 dereferenceable(48) %18, ptr noundef %5)
  ret void
}